; Function Attrs: mustprogress nofree norecurse nosync nounwind willreturn memory(read, inaccessiblemem: none) uwtable
define noundef i32 @_ZNK9MeshGraph10MergeCountEv(ptr nocapture noundef nonnull readonly align 8 dereferenceable(80) %0) local_unnamed_addr #22 align 2 {
  %2 = getelementptr inbounds i8, ptr %0, i64 24
  %.sroa.05.08 = load ptr, ptr %2, align 8
  %.not9 = icmp eq ptr %.sroa.05.08, null
  br i1 %.not9, label %._crit_edge, label %.lr.ph

.lr.ph:                                           ; preds = %1, %.lr.ph
  %.sroa.05.011 = phi ptr [ %.sroa.05.0, %.lr.ph ], [ %.sroa.05.08, %1 ]
  %.010 = phi i32 [ %7, %.lr.ph ], [ 0, %1 ]
  %3 = getelementptr inbounds i8, ptr %.sroa.05.011, i64 16
  %4 = load ptr, ptr %3, align 8
  %5 = getelementptr inbounds i8, ptr %4, i64 96
  %6 = load i32, ptr %5, align 8
  %7 = add nsw i32 %6, %.010
  %.sroa.05.0 = load ptr, ptr %.sroa.05.011, align 8
  %.not = icmp eq ptr %.sroa.05.0, null
  br i1 %.not, label %._crit_edge, label %.lr.ph

._crit_edge:                                      ; preds = %.lr.ph, %1
  %.0.lcssa = phi i32 [ 0, %1 ], [ %7, %.lr.ph ]
  ret i32 %.0.lcssa
}